; Function Attrs: nounwind uwtable
define dso_local i32 @slurm_send_timeout(i32 noundef %0, ptr noundef %1, i64 noundef %2, i32 noundef %3) local_unnamed_addr #0 {
  %5 = alloca %struct.iovec, align 8
  call void @llvm.lifetime.start.p0(i64 16, ptr nonnull %5) #11
  store ptr %1, ptr %5, align 8
  %6 = getelementptr inbounds nuw i8, ptr %5, i64 8
  store i64 %2, ptr %6, align 8
  %7 = call fastcc i32 @_writev_timeout(i32 noundef %0, ptr noundef %5, i32 noundef 1, i32 noundef %3)
  call void @llvm.lifetime.end.p0(i64 16, ptr nonnull %5) #11
  ret i32 %7
}